target datalayout = "e-m:e-p270:32:32-p271:32:32-p272:64:64-i64:64-i128:128-f80:128-n8:16:32:64-S128"
target triple = "x86_64-pc-linux-gnu"

; Function Attrs: inlinehint nounwind uwtable
define internal i32 @pg_popcount64_fast(i64 noundef %0) #1 {
  %2 = alloca i64, align 8
  %3 = alloca i64, align 8
  store i64 %0, ptr %2, align 8
  call void @llvm.lifetime.start.p0(i64 8, ptr %3) #6
  %4 = load i64, ptr %2, align 8
  %5 = call i64 asm sideeffect " popcntq $1,$0\0A", "=q,rm,~{cc},~{dirflag},~{fpsr},~{flags}"(i64 %4) #6, !srcloc !4
  store i64 %5, ptr %3, align 8
  %6 = load i64, ptr %3, align 8
  %7 = trunc i64 %6 to i32
  call void @llvm.lifetime.end.p0(i64 8, ptr %3) #6
  ret i32 %7
}

; Function Attrs: nounwind uwtable
define internal i64 @pg_popcount_fast(ptr noundef %0, i32 noundef %1) #0 {
  %3 = alloca ptr, align 8
  %4 = alloca i32, align 4
  %5 = alloca i64, align 8
  %6 = alloca ptr, align 8
  store ptr %0, ptr %3, align 8
  store i32 %1, ptr %4, align 4
  call void @llvm.lifetime.start.p0(i64 8, ptr %5) #6
  store i64 0, ptr %5, align 8
  %7 = load ptr, ptr %3, align 8
  %8 = load ptr, ptr %3, align 8
  %9 = ptrtoint ptr %8 to i64
  %10 = add i64 %9, 7
  %11 = and i64 %10, -8
  %12 = inttoptr i64 %11 to ptr
  %13 = icmp eq ptr %7, %12
  br i1 %13, label %14, label %31

14:                                               ; preds = %2
  call void @llvm.lifetime.start.p0(i64 8, ptr %6) #6
  %15 = load ptr, ptr %3, align 8
  store ptr %15, ptr %6, align 8
  br label %16

16:                                               ; preds = %19, %14
  %17 = load i32, ptr %4, align 4
  %18 = icmp sge i32 %17, 8
  br i1 %18, label %19, label %29

19:                                               ; preds = %16
  %20 = load ptr, ptr %6, align 8
  %21 = getelementptr inbounds nuw i64, ptr %20, i32 1
  store ptr %21, ptr %6, align 8
  %22 = load i64, ptr %20, align 8
  %23 = call i32 @pg_popcount64_fast(i64 noundef %22)
  %24 = sext i32 %23 to i64
  %25 = load i64, ptr %5, align 8
  %26 = add i64 %25, %24
  store i64 %26, ptr %5, align 8
  %27 = load i32, ptr %4, align 4
  %28 = sub i32 %27, 8
  store i32 %28, ptr %4, align 4
  br label %16, !llvm.loop !5

29:                                               ; preds = %16
  %30 = load ptr, ptr %6, align 8
  store ptr %30, ptr %3, align 8
  call void @llvm.lifetime.end.p0(i64 8, ptr %6) #6
  br label %31

31:                                               ; preds = %29, %2
  br label %32

32:                                               ; preds = %36, %31
  %33 = load i32, ptr %4, align 4
  %34 = add i32 %33, -1
  store i32 %34, ptr %4, align 4
  %35 = icmp ne i32 %33, 0
  br i1 %35, label %36, label %46

36:                                               ; preds = %32
  %37 = load ptr, ptr %3, align 8
  %38 = getelementptr inbounds nuw i8, ptr %37, i32 1
  store ptr %38, ptr %3, align 8
  %39 = load i8, ptr %37, align 1
  %40 = zext i8 %39 to i64
  %41 = getelementptr inbounds nuw [256 x i8], ptr @pg_number_of_ones, i64 0, i64 %40
  %42 = load i8, ptr %41, align 1
  %43 = zext i8 %42 to i64
  %44 = load i64, ptr %5, align 8
  %45 = add i64 %44, %43
  store i64 %45, ptr %5, align 8
  br label %32, !llvm.loop !7

46:                                               ; preds = %32
  %47 = load i64, ptr %5, align 8
  call void @llvm.lifetime.end.p0(i64 8, ptr %5) #6
  ret i64 %47
}