; Function Attrs: nounwind uwtable
define internal i64 @pg_popcount_fast(ptr noundef %0, i32 noundef %1) #0 {
  %3 = ptrtoint ptr %0 to i64
  %4 = add i64 %3, 7
  %5 = and i64 %4, -8
  %6 = inttoptr i64 %5 to ptr
  %7 = icmp eq ptr %0, %6
  %8 = icmp sgt i32 %1, 7
  %or.cond = and i1 %7, %8
  br i1 %or.cond, label %.lr.ph, label %.loopexit

.lr.ph:                                           ; preds = %2, %.lr.ph
  %.021 = phi ptr [ %9, %.lr.ph ], [ %0, %2 ]
  %.120 = phi i64 [ %13, %.lr.ph ], [ 0, %2 ]
  %.11319 = phi i32 [ %14, %.lr.ph ], [ %1, %2 ]
  %9 = getelementptr inbounds nuw i8, ptr %.021, i64 8
  %10 = load i64, ptr %.021, align 8
  %11 = tail call i64 asm sideeffect " popcntq $1,$0\0A", "=q,rm,~{cc},~{dirflag},~{fpsr},~{flags}"(i64 %10) #7, !srcloc !8
  %sext = shl i64 %11, 32
  %12 = ashr exact i64 %sext, 32
  %13 = add i64 %12, %.120
  %14 = add nsw i32 %.11319, -8
  %15 = icmp samesign ugt i32 %.11319, 15
  br i1 %15, label %.lr.ph, label %.loopexit, !llvm.loop !9

.loopexit:                                        ; preds = %.lr.ph, %2
  %.015 = phi ptr [ %0, %2 ], [ %9, %.lr.ph ]
  %.012 = phi i32 [ %1, %2 ], [ %14, %.lr.ph ]
  %.011 = phi i64 [ 0, %2 ], [ %13, %.lr.ph ]
  %.not24 = icmp eq i32 %.012, 0
  br i1 %.not24, label %._crit_edge, label %.lr.ph28

.lr.ph28:                                         ; preds = %.loopexit, %.lr.ph28
  %.227 = phi i64 [ %23, %.lr.ph28 ], [ %.011, %.loopexit ]
  %.21426 = phi i32 [ %16, %.lr.ph28 ], [ %.012, %.loopexit ]
  %.11625 = phi ptr [ %17, %.lr.ph28 ], [ %.015, %.loopexit ]
  %16 = add i32 %.21426, -1
  %17 = getelementptr inbounds nuw i8, ptr %.11625, i64 1
  %18 = load i8, ptr %.11625, align 1
  %19 = zext i8 %18 to i64
  %20 = getelementptr inbounds nuw [256 x i8], ptr @pg_number_of_ones, i64 0, i64 %19
  %21 = load i8, ptr %20, align 1
  %22 = zext i8 %21 to i64
  %23 = add i64 %.227, %22
  %.not = icmp eq i32 %16, 0
  br i1 %.not, label %._crit_edge, label %.lr.ph28, !llvm.loop !10

._crit_edge:                                      ; preds = %.lr.ph28, %.loopexit
  %.2.lcssa = phi i64 [ %.011, %.loopexit ], [ %23, %.lr.ph28 ]
  ret i64 %.2.lcssa
}